target datalayout = "e-m:e-p270:32:32-p271:32:32-p272:64:64-i64:64-i128:128-f80:128-n8:16:32:64-S128"
target triple = "x86_64-pc-linux-gnu"

; Function Attrs: nounwind uwtable
define internal i64 @H5O__mdci_size(ptr noundef %0, i1 noundef zeroext %1, ptr noundef %2) #0 {
  %4 = alloca ptr, align 8
  %5 = alloca i8, align 1
  %6 = alloca ptr, align 8
  %7 = alloca i64, align 8
  store ptr %0, ptr %4, align 8
  %8 = zext i1 %1 to i8
  store i8 %8, ptr %5, align 1
  store ptr %2, ptr %6, align 8
  store i64 0, ptr %7, align 8
  %9 = load ptr, ptr %4, align 8
  %10 = call zeroext i8 @H5F_sizeof_addr(ptr noundef %9)
  %11 = zext i8 %10 to i32
  %12 = add nsw i32 1, %11
  %13 = load ptr, ptr %4, align 8
  %14 = call zeroext i8 @H5F_sizeof_size(ptr noundef %13)
  %15 = zext i8 %14 to i32
  %16 = add nsw i32 %12, %15
  %17 = sext i32 %16 to i64
  store i64 %17, ptr %7, align 8
  %18 = load i64, ptr %7, align 8
  ret i64 %18
}