; Function Attrs: nounwind uwtable
define internal range(i64 1, 512) i64 @H5O__mdci_size(ptr noundef %0, i1 zeroext %1, ptr nocapture readnone %2) #0 {
  %4 = tail call zeroext i8 @H5F_sizeof_addr(ptr noundef %0) #5
  %5 = zext i8 %4 to i64
  %6 = add nuw nsw i64 %5, 1
  %7 = tail call zeroext i8 @H5F_sizeof_size(ptr noundef %0) #5
  %8 = zext i8 %7 to i64
  %9 = add nuw nsw i64 %6, %8
  ret i64 %9
}